target datalayout = "e-m:e-p270:32:32-p271:32:32-p272:64:64-i64:64-f80:128-n8:16:32:64-S128"
target triple = "x86_64-pc-linux-gnu"

@.str = private unnamed_addr constant [3 x i8] c"%d\00", align 1
@.str.1 = private unnamed_addr constant [3 x i8] c"%s\00", align 1
@.str.2 = private unnamed_addr constant [3 x i8] c"%c\00", align 1
@.str.3 = private unnamed_addr constant [2 x i8] c"\0A\00", align 1

; Function Attrs: noinline nounwind uwtable
define dso_local i32 @main() #0 {
  %1 = alloca i32, align 4
  %2 = alloca [100 x i8], align 16
  %3 = alloca i32, align 4
  %4 = alloca i32, align 4
  %5 = alloca i32, align 4
  %6 = alloca i32, align 4
  %7 = alloca i32, align 4
  %8 = alloca [100 x i32], align 16
  %9 = alloca i32, align 4
  store i32 0, i32* %1, align 4
  store i32 0, i32* %4, align 4
  %10 = call i32 (i8*, ...) @__isoc99_scanf(i8* getelementptr inbounds ([3 x i8], [3 x i8]* @.str, i64 0, i64 0), i32* %6)
  %11 = getelementptr inbounds [100 x i8], [100 x i8]* %2, i64 0, i64 0
  %12 = call i32 (i8*, ...) @__isoc99_scanf(i8* getelementptr inbounds ([3 x i8], [3 x i8]* @.str.1, i64 0, i64 0), i8* %11)
  %13 = call i32 (i8*, ...) @__isoc99_scanf(i8* getelementptr inbounds ([3 x i8], [3 x i8]* @.str, i64 0, i64 0), i32* %7)
  %14 = getelementptr inbounds [100 x i8], [100 x i8]* %2, i64 0, i64 0
  %15 = call i64 @strlen(i8* %14) #4
  %16 = trunc i64 %15 to i32
  store i32 %16, i32* %3, align 4
  store i32 0, i32* %5, align 4
  br label %17

17:                                               ; preds = %102, %0
  %18 = load i32, i32* %5, align 4
  %19 = load i32, i32* %3, align 4
  %20 = sub nsw i32 %19, 1
  %21 = icmp sle i32 %18, %20
  br i1 %21, label %22, label %105

22:                                               ; preds = %17
  %23 = load i32, i32* %5, align 4
  %24 = sext i32 %23 to i64
  %25 = getelementptr inbounds [100 x i8], [100 x i8]* %2, i64 0, i64 %24
  %26 = load i8, i8* %25, align 1
  %27 = sext i8 %26 to i32
  %28 = icmp sle i32 65, %27
  br i1 %28, label %29, label %48

29:                                               ; preds = %22
  %30 = load i32, i32* %5, align 4
  %31 = sext i32 %30 to i64
  %32 = getelementptr inbounds [100 x i8], [100 x i8]* %2, i64 0, i64 %31
  %33 = load i8, i8* %32, align 1
  %34 = sext i8 %33 to i32
  %35 = icmp sle i32 %34, 90
  br i1 %35, label %36, label %48

36:                                               ; preds = %29
  %37 = load i32, i32* %5, align 4
  %38 = sext i32 %37 to i64
  %39 = getelementptr inbounds [100 x i8], [100 x i8]* %2, i64 0, i64 %38
  %40 = load i8, i8* %39, align 1
  %41 = sext i8 %40 to i32
  %42 = sub nsw i32 %41, 65
  %43 = add nsw i32 %42, 10
  %44 = trunc i32 %43 to i8
  %45 = load i32, i32* %5, align 4
  %46 = sext i32 %45 to i64
  %47 = getelementptr inbounds [100 x i8], [100 x i8]* %2, i64 0, i64 %46
  store i8 %44, i8* %47, align 1
  br label %101

48:                                               ; preds = %29, %22
  %49 = load i32, i32* %5, align 4
  %50 = sext i32 %49 to i64
  %51 = getelementptr inbounds [100 x i8], [100 x i8]* %2, i64 0, i64 %50
  %52 = load i8, i8* %51, align 1
  %53 = sext i8 %52 to i32
  %54 = icmp sle i32 97, %53
  br i1 %54, label %55, label %74

55:                                               ; preds = %48
  %56 = load i32, i32* %5, align 4
  %57 = sext i32 %56 to i64
  %58 = getelementptr inbounds [100 x i8], [100 x i8]* %2, i64 0, i64 %57
  %59 = load i8, i8* %58, align 1
  %60 = sext i8 %59 to i32
  %61 = icmp sle i32 %60, 122
  br i1 %61, label %62, label %74

62:                                               ; preds = %55
  %63 = load i32, i32* %5, align 4
  %64 = sext i32 %63 to i64
  %65 = getelementptr inbounds [100 x i8], [100 x i8]* %2, i64 0, i64 %64
  %66 = load i8, i8* %65, align 1
  %67 = sext i8 %66 to i32
  %68 = sub nsw i32 %67, 97
  %69 = add nsw i32 %68, 10
  %70 = trunc i32 %69 to i8
  %71 = load i32, i32* %5, align 4
  %72 = sext i32 %71 to i64
  %73 = getelementptr inbounds [100 x i8], [100 x i8]* %2, i64 0, i64 %72
  store i8 %70, i8* %73, align 1
  br label %100

74:                                               ; preds = %55, %48
  %75 = load i32, i32* %5, align 4
  %76 = sext i32 %75 to i64
  %77 = getelementptr inbounds [100 x i8], [100 x i8]* %2, i64 0, i64 %76
  %78 = load i8, i8* %77, align 1
  %79 = sext i8 %78 to i32
  %80 = icmp sle i32 48, %79
  br i1 %80, label %81, label %99

81:                                               ; preds = %74
  %82 = load i32, i32* %5, align 4
  %83 = sext i32 %82 to i64
  %84 = getelementptr inbounds [100 x i8], [100 x i8]* %2, i64 0, i64 %83
  %85 = load i8, i8* %84, align 1
  %86 = sext i8 %85 to i32
  %87 = icmp sle i32 %86, 57
  br i1 %87, label %88, label %99

88:                                               ; preds = %81
  %89 = load i32, i32* %5, align 4
  %90 = sext i32 %89 to i64
  %91 = getelementptr inbounds [100 x i8], [100 x i8]* %2, i64 0, i64 %90
  %92 = load i8, i8* %91, align 1
  %93 = sext i8 %92 to i32
  %94 = sub nsw i32 %93, 48
  %95 = trunc i32 %94 to i8
  %96 = load i32, i32* %5, align 4
  %97 = sext i32 %96 to i64
  %98 = getelementptr inbounds [100 x i8], [100 x i8]* %2, i64 0, i64 %97
  store i8 %95, i8* %98, align 1
  br label %99

99:                                               ; preds = %88, %81, %74
  br label %100

100:                                              ; preds = %99, %62
  br label %101

101:                                              ; preds = %100, %36
  br label %102

102:                                              ; preds = %101
  %103 = load i32, i32* %5, align 4
  %104 = add nsw i32 %103, 1
  store i32 %104, i32* %5, align 4
  br label %17

105:                                              ; preds = %17
  store i32 0, i32* %5, align 4
  br label %106

106:                                              ; preds = %130, %105
  %107 = load i32, i32* %5, align 4
  %108 = load i32, i32* %3, align 4
  %109 = sub nsw i32 %108, 1
  %110 = icmp sle i32 %107, %109
  br i1 %110, label %111, label %133

111:                                              ; preds = %106
  %112 = load i32, i32* %4, align 4
  %113 = load i32, i32* %5, align 4
  %114 = sext i32 %113 to i64
  %115 = getelementptr inbounds [100 x i8], [100 x i8]* %2, i64 0, i64 %114
  %116 = load i8, i8* %115, align 1
  %117 = sext i8 %116 to i32
  %118 = sitofp i32 %117 to double
  %119 = load i32, i32* %6, align 4
  %120 = sitofp i32 %119 to double
  %121 = load i32, i32* %3, align 4
  %122 = load i32, i32* %5, align 4
  %123 = sub nsw i32 %121, %122
  %124 = sub nsw i32 %123, 1
  %125 = sitofp i32 %124 to double
  %126 = call double @pow(double %120, double %125) #5
  %127 = fmul double %118, %126
  %128 = fptosi double %127 to i32
  %129 = add nsw i32 %112, %128
  store i32 %129, i32* %4, align 4
  br label %130

130:                                              ; preds = %111
  %131 = load i32, i32* %5, align 4
  %132 = add nsw i32 %131, 1
  store i32 %132, i32* %5, align 4
  br label %106

133:                                              ; preds = %106
  %134 = load i32, i32* %4, align 4
  %135 = icmp eq i32 %134, 0
  br i1 %135, label %136, label %139

136:                                              ; preds = %133
  %137 = load i32, i32* %4, align 4
  %138 = call i32 (i8*, ...) @printf(i8* getelementptr inbounds ([3 x i8], [3 x i8]* @.str, i64 0, i64 0), i32 %137)
  br label %139

139:                                              ; preds = %136, %133
  %140 = load i32, i32* %4, align 4
  %141 = icmp ne i32 %140, 0
  br i1 %141, label %142, label %210

142:                                              ; preds = %139
  store i32 0, i32* %5, align 4
  br label %143

143:                                              ; preds = %156, %142
  %144 = load i32, i32* %4, align 4
  %145 = icmp ne i32 %144, 0
  br i1 %145, label %146, label %159

146:                                              ; preds = %143
  %147 = load i32, i32* %4, align 4
  %148 = load i32, i32* %7, align 4
  %149 = srem i32 %147, %148
  %150 = load i32, i32* %5, align 4
  %151 = sext i32 %150 to i64
  %152 = getelementptr inbounds [100 x i32], [100 x i32]* %8, i64 0, i64 %151
  store i32 %149, i32* %152, align 4
  %153 = load i32, i32* %4, align 4
  %154 = load i32, i32* %7, align 4
  %155 = sdiv i32 %153, %154
  store i32 %155, i32* %4, align 4
  br label %156

156:                                              ; preds = %146
  %157 = load i32, i32* %5, align 4
  %158 = add nsw i32 %157, 1
  store i32 %158, i32* %5, align 4
  br label %143

159:                                              ; preds = %143
  %160 = load i32, i32* %5, align 4
  %161 = sub nsw i32 %160, 1
  store i32 %161, i32* %9, align 4
  br label %162

162:                                              ; preds = %206, %159
  %163 = load i32, i32* %9, align 4
  %164 = icmp sge i32 %163, 0
  br i1 %164, label %165, label %209

165:                                              ; preds = %162
  %166 = load i32, i32* %9, align 4
  %167 = sext i32 %166 to i64
  %168 = getelementptr inbounds [100 x i32], [100 x i32]* %8, i64 0, i64 %167
  %169 = load i32, i32* %168, align 4
  %170 = icmp sle i32 0, %169
  br i1 %170, label %171, label %183

171:                                              ; preds = %165
  %172 = load i32, i32* %9, align 4
  %173 = sext i32 %172 to i64
  %174 = getelementptr inbounds [100 x i32], [100 x i32]* %8, i64 0, i64 %173
  %175 = load i32, i32* %174, align 4
  %176 = icmp sle i32 %175, 9
  br i1 %176, label %177, label %183

177:                                              ; preds = %171
  %178 = load i32, i32* %9, align 4
  %179 = sext i32 %178 to i64
  %180 = getelementptr inbounds [100 x i32], [100 x i32]* %8, i64 0, i64 %179
  %181 = load i32, i32* %180, align 4
  %182 = call i32 (i8*, ...) @printf(i8* getelementptr inbounds ([3 x i8], [3 x i8]* @.str, i64 0, i64 0), i32 %181)
  br label %205

183:                                              ; preds = %171, %165
  %184 = load i32, i32* %9, align 4
  %185 = sext i32 %184 to i64
  %186 = getelementptr inbounds [100 x i32], [100 x i32]* %8, i64 0, i64 %185
  %187 = load i32, i32* %186, align 4
  %188 = icmp sge i32 %187, 10
  br i1 %188, label %189, label %204

189:                                              ; preds = %183
  %190 = load i32, i32* %9, align 4
  %191 = sext i32 %190 to i64
  %192 = getelementptr inbounds [100 x i32], [100 x i32]* %8, i64 0, i64 %191
  %193 = load i32, i32* %192, align 4
  %194 = add nsw i32 %193, 65
  %195 = sub nsw i32 %194, 10
  %196 = load i32, i32* %9, align 4
  %197 = sext i32 %196 to i64
  %198 = getelementptr inbounds [100 x i32], [100 x i32]* %8, i64 0, i64 %197
  store i32 %195, i32* %198, align 4
  %199 = load i32, i32* %9, align 4
  %200 = sext i32 %199 to i64
  %201 = getelementptr inbounds [100 x i32], [100 x i32]* %8, i64 0, i64 %200
  %202 = load i32, i32* %201, align 4
  %203 = call i32 (i8*, ...) @printf(i8* getelementptr inbounds ([3 x i8], [3 x i8]* @.str.2, i64 0, i64 0), i32 %202)
  br label %204

204:                                              ; preds = %189, %183
  br label %205

205:                                              ; preds = %204, %177
  br label %206

206:                                              ; preds = %205
  %207 = load i32, i32* %9, align 4
  %208 = add nsw i32 %207, -1
  store i32 %208, i32* %9, align 4
  br label %162

209:                                              ; preds = %162
  br label %210

210:                                              ; preds = %209, %139
  %211 = call i32 (i8*, ...) @printf(i8* getelementptr inbounds ([2 x i8], [2 x i8]* @.str.3, i64 0, i64 0))
  ret i32 0
}